target datalayout = "e-m:e-p270:32:32-p271:32:32-p272:64:64-i64:64-i128:128-f80:128-n8:16:32:64-S128"
target triple = "x86_64-pc-linux-gnu"

%struct.b3OpenCLDeviceInfo = type { [1024 x i8], [1024 x i8], [1024 x i8], [1024 x i8], i64, i32, i64, [3 x i64], i64, i64, i64, i64, i64, i64, i32, i64, i64, i64, i32, i32, i32, i32, i32, i64, i64, i32, i32, i32, i32, i32, i32, i32 }

@.str.17 = private unnamed_addr constant [14 x i8] c"Device Info:\0A\00", align 1
@.str.18 = private unnamed_addr constant [25 x i8] c"  CL_DEVICE_NAME: \09\09\09%s\0A\00", align 1
@.str.19 = private unnamed_addr constant [27 x i8] c"  CL_DEVICE_VENDOR: \09\09\09%s\0A\00", align 1
@.str.20 = private unnamed_addr constant [28 x i8] c"  CL_DRIVER_VERSION: \09\09\09%s\0A\00", align 1
@.str.21 = private unnamed_addr constant [24 x i8] c"  CL_DEVICE_TYPE:\09\09\09%s\0A\00", align 1
@.str.22 = private unnamed_addr constant [19 x i8] c"CL_DEVICE_TYPE_CPU\00", align 1
@.str.23 = private unnamed_addr constant [19 x i8] c"CL_DEVICE_TYPE_GPU\00", align 1
@.str.24 = private unnamed_addr constant [27 x i8] c"CL_DEVICE_TYPE_ACCELERATOR\00", align 1
@.str.25 = private unnamed_addr constant [23 x i8] c"CL_DEVICE_TYPE_DEFAULT\00", align 1
@.str.26 = private unnamed_addr constant [36 x i8] c"  CL_DEVICE_MAX_COMPUTE_UNITS:\09\09%u\0A\00", align 1
@.str.27 = private unnamed_addr constant [42 x i8] c"  CL_DEVICE_MAX_WORK_ITEM_DIMENSIONS:\09%u\0A\00", align 1
@.str.28 = private unnamed_addr constant [48 x i8] c"  CL_DEVICE_MAX_WORK_ITEM_SIZES:\09%u / %u / %u \0A\00", align 1
@.str.29 = private unnamed_addr constant [37 x i8] c"  CL_DEVICE_MAX_WORK_GROUP_SIZE:\09%u\0A\00", align 1
@.str.30 = private unnamed_addr constant [41 x i8] c"  CL_DEVICE_MAX_CLOCK_FREQUENCY:\09%u MHz\0A\00", align 1
@.str.31 = private unnamed_addr constant [31 x i8] c"  CL_DEVICE_ADDRESS_BITS:\09\09%u\0A\00", align 1
@.str.32 = private unnamed_addr constant [43 x i8] c"  CL_DEVICE_MAX_MEM_ALLOC_SIZE:\09\09%u MByte\0A\00", align 1
@.str.33 = private unnamed_addr constant [40 x i8] c"  CL_DEVICE_GLOBAL_MEM_SIZE:\09\09%u MByte\0A\00", align 1
@.str.34 = private unnamed_addr constant [42 x i8] c"  CL_DEVICE_ERROR_CORRECTION_SUPPORT:\09%s\0A\00", align 1
@.str.35 = private unnamed_addr constant [4 x i8] c"yes\00", align 1
@.str.36 = private unnamed_addr constant [3 x i8] c"no\00", align 1
@.str.37 = private unnamed_addr constant [33 x i8] c"  CL_DEVICE_LOCAL_MEM_TYPE:\09\09%s\0A\00", align 1
@.str.38 = private unnamed_addr constant [6 x i8] c"local\00", align 1
@.str.39 = private unnamed_addr constant [7 x i8] c"global\00", align 1
@.str.40 = private unnamed_addr constant [39 x i8] c"  CL_DEVICE_LOCAL_MEM_SIZE:\09\09%u KByte\0A\00", align 1
@.str.41 = private unnamed_addr constant [48 x i8] c"  CL_DEVICE_MAX_CONSTANT_BUFFER_SIZE:\09%u KByte\0A\00", align 1
@.str.42 = private unnamed_addr constant [35 x i8] c"  CL_DEVICE_QUEUE_PROPERTIES:\09\09%s\0A\00", align 1
@.str.43 = private unnamed_addr constant [39 x i8] c"CL_QUEUE_OUT_OF_ORDER_EXEC_MODE_ENABLE\00", align 1
@.str.44 = private unnamed_addr constant [26 x i8] c"CL_QUEUE_PROFILING_ENABLE\00", align 1
@.str.45 = private unnamed_addr constant [32 x i8] c"  CL_DEVICE_IMAGE_SUPPORT:\09\09%u\0A\00", align 1
@.str.46 = private unnamed_addr constant [37 x i8] c"  CL_DEVICE_MAX_READ_IMAGE_ARGS:\09%u\0A\00", align 1
@.str.47 = private unnamed_addr constant [38 x i8] c"  CL_DEVICE_MAX_WRITE_IMAGE_ARGS:\09%u\0A\00", align 1
@.str.48 = private unnamed_addr constant [25 x i8] c"\0A  CL_DEVICE_IMAGE <dim>\00", align 1
@.str.49 = private unnamed_addr constant [21 x i8] c"\09\09\092D_MAX_WIDTH\09 %u\0A\00", align 1
@.str.50 = private unnamed_addr constant [24 x i8] c"\09\09\09\09\092D_MAX_HEIGHT\09 %u\0A\00", align 1
@.str.51 = private unnamed_addr constant [23 x i8] c"\09\09\09\09\093D_MAX_WIDTH\09 %u\0A\00", align 1
@.str.52 = private unnamed_addr constant [24 x i8] c"\09\09\09\09\093D_MAX_HEIGHT\09 %u\0A\00", align 1
@.str.53 = private unnamed_addr constant [23 x i8] c"\09\09\09\09\093D_MAX_DEPTH\09 %u\0A\00", align 1
@.str.54 = private unnamed_addr constant [28 x i8] c"\0A  CL_DEVICE_EXTENSIONS:%s\0A\00", align 1
@.str.55 = private unnamed_addr constant [30 x i8] c"  CL_DEVICE_EXTENSIONS: None\0A\00", align 1
@.str.56 = private unnamed_addr constant [40 x i8] c"  CL_DEVICE_PREFERRED_VECTOR_WIDTH_<t>\09\00", align 1
@.str.57 = private unnamed_addr constant [58 x i8] c"CHAR %u, SHORT %u, INT %u,LONG %u, FLOAT %u, DOUBLE %u\0A\0A\0A\00", align 1

; Function Attrs: mustprogress uwtable
define dso_local void @b3OpenCLUtils_printDeviceInfo(ptr noundef %0) #0 {
  %2 = alloca ptr, align 8
  %3 = alloca %struct.b3OpenCLDeviceInfo, align 8
  store ptr %0, ptr %2, align 8, !tbaa !33
  call void @llvm.lifetime.start.p0(i64 4296, ptr %3) #9
  %4 = load ptr, ptr %2, align 8, !tbaa !33
  call void @_ZN13b3OpenCLUtils13getDeviceInfoEP13_cl_device_idP18b3OpenCLDeviceInfo(ptr noundef %4, ptr noundef %3)
  call void (ptr, ...) @b3OutputPrintfVarArgsInternal(ptr noundef @.str.17)
  %5 = getelementptr inbounds nuw %struct.b3OpenCLDeviceInfo, ptr %3, i32 0, i32 0
  %6 = getelementptr inbounds [1024 x i8], ptr %5, i64 0, i64 0
  call void (ptr, ...) @b3OutputPrintfVarArgsInternal(ptr noundef @.str.18, ptr noundef %6)
  %7 = getelementptr inbounds nuw %struct.b3OpenCLDeviceInfo, ptr %3, i32 0, i32 1
  %8 = getelementptr inbounds [1024 x i8], ptr %7, i64 0, i64 0
  call void (ptr, ...) @b3OutputPrintfVarArgsInternal(ptr noundef @.str.19, ptr noundef %8)
  %9 = getelementptr inbounds nuw %struct.b3OpenCLDeviceInfo, ptr %3, i32 0, i32 2
  %10 = getelementptr inbounds [1024 x i8], ptr %9, i64 0, i64 0
  call void (ptr, ...) @b3OutputPrintfVarArgsInternal(ptr noundef @.str.20, ptr noundef %10)
  %11 = getelementptr inbounds nuw %struct.b3OpenCLDeviceInfo, ptr %3, i32 0, i32 4
  %12 = load i64, ptr %11, align 8, !tbaa !35
  %13 = and i64 %12, 2
  %14 = icmp ne i64 %13, 0
  br i1 %14, label %15, label %16

15:                                               ; preds = %1
  call void (ptr, ...) @b3OutputPrintfVarArgsInternal(ptr noundef @.str.21, ptr noundef @.str.22)
  br label %16

16:                                               ; preds = %15, %1
  %17 = getelementptr inbounds nuw %struct.b3OpenCLDeviceInfo, ptr %3, i32 0, i32 4
  %18 = load i64, ptr %17, align 8, !tbaa !35
  %19 = and i64 %18, 4
  %20 = icmp ne i64 %19, 0
  br i1 %20, label %21, label %22

21:                                               ; preds = %16
  call void (ptr, ...) @b3OutputPrintfVarArgsInternal(ptr noundef @.str.21, ptr noundef @.str.23)
  br label %22

22:                                               ; preds = %21, %16
  %23 = getelementptr inbounds nuw %struct.b3OpenCLDeviceInfo, ptr %3, i32 0, i32 4
  %24 = load i64, ptr %23, align 8, !tbaa !35
  %25 = and i64 %24, 8
  %26 = icmp ne i64 %25, 0
  br i1 %26, label %27, label %28

27:                                               ; preds = %22
  call void (ptr, ...) @b3OutputPrintfVarArgsInternal(ptr noundef @.str.21, ptr noundef @.str.24)
  br label %28

28:                                               ; preds = %27, %22
  %29 = getelementptr inbounds nuw %struct.b3OpenCLDeviceInfo, ptr %3, i32 0, i32 4
  %30 = load i64, ptr %29, align 8, !tbaa !35
  %31 = and i64 %30, 1
  %32 = icmp ne i64 %31, 0
  br i1 %32, label %33, label %34

33:                                               ; preds = %28
  call void (ptr, ...) @b3OutputPrintfVarArgsInternal(ptr noundef @.str.21, ptr noundef @.str.25)
  br label %34

34:                                               ; preds = %33, %28
  %35 = getelementptr inbounds nuw %struct.b3OpenCLDeviceInfo, ptr %3, i32 0, i32 5
  %36 = load i32, ptr %35, align 8, !tbaa !37
  call void (ptr, ...) @b3OutputPrintfVarArgsInternal(ptr noundef @.str.26, i32 noundef %36)
  %37 = getelementptr inbounds nuw %struct.b3OpenCLDeviceInfo, ptr %3, i32 0, i32 6
  %38 = load i64, ptr %37, align 8, !tbaa !38
  call void (ptr, ...) @b3OutputPrintfVarArgsInternal(ptr noundef @.str.27, i64 noundef %38)
  %39 = getelementptr inbounds nuw %struct.b3OpenCLDeviceInfo, ptr %3, i32 0, i32 7
  %40 = getelementptr inbounds [3 x i64], ptr %39, i64 0, i64 0
  %41 = load i64, ptr %40, align 8, !tbaa !10
  %42 = getelementptr inbounds nuw %struct.b3OpenCLDeviceInfo, ptr %3, i32 0, i32 7
  %43 = getelementptr inbounds [3 x i64], ptr %42, i64 0, i64 1
  %44 = load i64, ptr %43, align 8, !tbaa !10
  %45 = getelementptr inbounds nuw %struct.b3OpenCLDeviceInfo, ptr %3, i32 0, i32 7
  %46 = getelementptr inbounds [3 x i64], ptr %45, i64 0, i64 2
  %47 = load i64, ptr %46, align 8, !tbaa !10
  call void (ptr, ...) @b3OutputPrintfVarArgsInternal(ptr noundef @.str.28, i64 noundef %41, i64 noundef %44, i64 noundef %47)
  %48 = getelementptr inbounds nuw %struct.b3OpenCLDeviceInfo, ptr %3, i32 0, i32 13
  %49 = load i64, ptr %48, align 8, !tbaa !39
  call void (ptr, ...) @b3OutputPrintfVarArgsInternal(ptr noundef @.str.29, i64 noundef %49)
  %50 = getelementptr inbounds nuw %struct.b3OpenCLDeviceInfo, ptr %3, i32 0, i32 14
  %51 = load i32, ptr %50, align 8, !tbaa !40
  call void (ptr, ...) @b3OutputPrintfVarArgsInternal(ptr noundef @.str.30, i32 noundef %51)
  %52 = getelementptr inbounds nuw %struct.b3OpenCLDeviceInfo, ptr %3, i32 0, i32 22
  %53 = load i32, ptr %52, align 8, !tbaa !41
  call void (ptr, ...) @b3OutputPrintfVarArgsInternal(ptr noundef @.str.31, i32 noundef %53)
  %54 = getelementptr inbounds nuw %struct.b3OpenCLDeviceInfo, ptr %3, i32 0, i32 23
  %55 = load i64, ptr %54, align 8, !tbaa !42
  %56 = udiv i64 %55, 1048576
  %57 = trunc i64 %56 to i32
  call void (ptr, ...) @b3OutputPrintfVarArgsInternal(ptr noundef @.str.32, i32 noundef %57)
  %58 = getelementptr inbounds nuw %struct.b3OpenCLDeviceInfo, ptr %3, i32 0, i32 17
  %59 = load i64, ptr %58, align 8, !tbaa !43
  %60 = udiv i64 %59, 1048576
  %61 = trunc i64 %60 to i32
  call void (ptr, ...) @b3OutputPrintfVarArgsInternal(ptr noundef @.str.33, i32 noundef %61)
  %62 = getelementptr inbounds nuw %struct.b3OpenCLDeviceInfo, ptr %3, i32 0, i32 18
  %63 = load i32, ptr %62, align 8, !tbaa !44
  %64 = icmp eq i32 %63, 1
  %65 = select i1 %64, ptr @.str.35, ptr @.str.36
  call void (ptr, ...) @b3OutputPrintfVarArgsInternal(ptr noundef @.str.34, ptr noundef %65)
  %66 = getelementptr inbounds nuw %struct.b3OpenCLDeviceInfo, ptr %3, i32 0, i32 19
  %67 = load i32, ptr %66, align 4, !tbaa !45
  %68 = icmp eq i32 %67, 1
  %69 = select i1 %68, ptr @.str.38, ptr @.str.39
  call void (ptr, ...) @b3OutputPrintfVarArgsInternal(ptr noundef @.str.37, ptr noundef %69)
  %70 = getelementptr inbounds nuw %struct.b3OpenCLDeviceInfo, ptr %3, i32 0, i32 16
  %71 = load i64, ptr %70, align 8, !tbaa !46
  %72 = udiv i64 %71, 1024
  %73 = trunc i64 %72 to i32
  call void (ptr, ...) @b3OutputPrintfVarArgsInternal(ptr noundef @.str.40, i32 noundef %73)
  %74 = getelementptr inbounds nuw %struct.b3OpenCLDeviceInfo, ptr %3, i32 0, i32 15
  %75 = load i64, ptr %74, align 8, !tbaa !47
  %76 = udiv i64 %75, 1024
  %77 = trunc i64 %76 to i32
  call void (ptr, ...) @b3OutputPrintfVarArgsInternal(ptr noundef @.str.41, i32 noundef %77)
  %78 = getelementptr inbounds nuw %struct.b3OpenCLDeviceInfo, ptr %3, i32 0, i32 24
  %79 = load i64, ptr %78, align 8, !tbaa !48
  %80 = and i64 %79, 1
  %81 = icmp ne i64 %80, 0
  br i1 %81, label %82, label %83

82:                                               ; preds = %34
  call void (ptr, ...) @b3OutputPrintfVarArgsInternal(ptr noundef @.str.42, ptr noundef @.str.43)
  br label %83

83:                                               ; preds = %82, %34
  %84 = getelementptr inbounds nuw %struct.b3OpenCLDeviceInfo, ptr %3, i32 0, i32 24
  %85 = load i64, ptr %84, align 8, !tbaa !48
  %86 = and i64 %85, 2
  %87 = icmp ne i64 %86, 0
  br i1 %87, label %88, label %89

88:                                               ; preds = %83
  call void (ptr, ...) @b3OutputPrintfVarArgsInternal(ptr noundef @.str.42, ptr noundef @.str.44)
  br label %89

89:                                               ; preds = %88, %83
  %90 = getelementptr inbounds nuw %struct.b3OpenCLDeviceInfo, ptr %3, i32 0, i32 25
  %91 = load i32, ptr %90, align 8, !tbaa !49
  call void (ptr, ...) @b3OutputPrintfVarArgsInternal(ptr noundef @.str.45, i32 noundef %91)
  %92 = getelementptr inbounds nuw %struct.b3OpenCLDeviceInfo, ptr %3, i32 0, i32 20
  %93 = load i32, ptr %92, align 8, !tbaa !50
  call void (ptr, ...) @b3OutputPrintfVarArgsInternal(ptr noundef @.str.46, i32 noundef %93)
  %94 = getelementptr inbounds nuw %struct.b3OpenCLDeviceInfo, ptr %3, i32 0, i32 21
  %95 = load i32, ptr %94, align 4, !tbaa !51
  call void (ptr, ...) @b3OutputPrintfVarArgsInternal(ptr noundef @.str.47, i32 noundef %95)
  call void (ptr, ...) @b3OutputPrintfVarArgsInternal(ptr noundef @.str.48)
  %96 = getelementptr inbounds nuw %struct.b3OpenCLDeviceInfo, ptr %3, i32 0, i32 8
  %97 = load i64, ptr %96, align 8, !tbaa !52
  call void (ptr, ...) @b3OutputPrintfVarArgsInternal(ptr noundef @.str.49, i64 noundef %97)
  %98 = getelementptr inbounds nuw %struct.b3OpenCLDeviceInfo, ptr %3, i32 0, i32 9
  %99 = load i64, ptr %98, align 8, !tbaa !53
  call void (ptr, ...) @b3OutputPrintfVarArgsInternal(ptr noundef @.str.50, i64 noundef %99)
  %100 = getelementptr inbounds nuw %struct.b3OpenCLDeviceInfo, ptr %3, i32 0, i32 10
  %101 = load i64, ptr %100, align 8, !tbaa !54
  call void (ptr, ...) @b3OutputPrintfVarArgsInternal(ptr noundef @.str.51, i64 noundef %101)
  %102 = getelementptr inbounds nuw %struct.b3OpenCLDeviceInfo, ptr %3, i32 0, i32 11
  %103 = load i64, ptr %102, align 8, !tbaa !55
  call void (ptr, ...) @b3OutputPrintfVarArgsInternal(ptr noundef @.str.52, i64 noundef %103)
  %104 = getelementptr inbounds nuw %struct.b3OpenCLDeviceInfo, ptr %3, i32 0, i32 12
  %105 = load i64, ptr %104, align 8, !tbaa !56
  call void (ptr, ...) @b3OutputPrintfVarArgsInternal(ptr noundef @.str.53, i64 noundef %105)
  %106 = getelementptr inbounds nuw %struct.b3OpenCLDeviceInfo, ptr %3, i32 0, i32 3
  %107 = getelementptr inbounds [1024 x i8], ptr %106, i64 0, i64 0
  %108 = load i8, ptr %107, align 8, !tbaa !22
  %109 = sext i8 %108 to i32
  %110 = icmp ne i32 %109, 0
  br i1 %110, label %111, label %114

111:                                              ; preds = %89
  %112 = getelementptr inbounds nuw %struct.b3OpenCLDeviceInfo, ptr %3, i32 0, i32 3
  %113 = getelementptr inbounds [1024 x i8], ptr %112, i64 0, i64 0
  call void (ptr, ...) @b3OutputPrintfVarArgsInternal(ptr noundef @.str.54, ptr noundef %113)
  br label %115

114:                                              ; preds = %89
  call void (ptr, ...) @b3OutputPrintfVarArgsInternal(ptr noundef @.str.55)
  br label %115

115:                                              ; preds = %114, %111
  call void (ptr, ...) @b3OutputPrintfVarArgsInternal(ptr noundef @.str.56)
  %116 = getelementptr inbounds nuw %struct.b3OpenCLDeviceInfo, ptr %3, i32 0, i32 26
  %117 = load i32, ptr %116, align 4, !tbaa !57
  %118 = getelementptr inbounds nuw %struct.b3OpenCLDeviceInfo, ptr %3, i32 0, i32 27
  %119 = load i32, ptr %118, align 8, !tbaa !58
  %120 = getelementptr inbounds nuw %struct.b3OpenCLDeviceInfo, ptr %3, i32 0, i32 28
  %121 = load i32, ptr %120, align 4, !tbaa !59
  %122 = getelementptr inbounds nuw %struct.b3OpenCLDeviceInfo, ptr %3, i32 0, i32 29
  %123 = load i32, ptr %122, align 8, !tbaa !60
  %124 = getelementptr inbounds nuw %struct.b3OpenCLDeviceInfo, ptr %3, i32 0, i32 30
  %125 = load i32, ptr %124, align 4, !tbaa !61
  %126 = getelementptr inbounds nuw %struct.b3OpenCLDeviceInfo, ptr %3, i32 0, i32 31
  %127 = load i32, ptr %126, align 8, !tbaa !62
  call void (ptr, ...) @b3OutputPrintfVarArgsInternal(ptr noundef @.str.57, i32 noundef %117, i32 noundef %119, i32 noundef %121, i32 noundef %123, i32 noundef %125, i32 noundef %127)
  call void @llvm.lifetime.end.p0(i64 4296, ptr %3) #9
  ret void
}