; Function Attrs: mustprogress uwtable
define dso_local void @b3OpenCLUtils_printDeviceInfo(ptr noundef %0) local_unnamed_addr #0 {
  %2 = alloca %struct.b3OpenCLDeviceInfo, align 8
  call void @llvm.lifetime.start.p0(i64 4296, ptr nonnull %2) #12
  call void @_ZN13b3OpenCLUtils13getDeviceInfoEP13_cl_device_idP18b3OpenCLDeviceInfo(ptr noundef %0, ptr noundef nonnull %2)
  call void (ptr, ...) @b3OutputPrintfVarArgsInternal(ptr noundef nonnull @.str.17)
  call void (ptr, ...) @b3OutputPrintfVarArgsInternal(ptr noundef nonnull @.str.18, ptr noundef nonnull %2)
  %3 = getelementptr inbounds nuw i8, ptr %2, i64 1024
  call void (ptr, ...) @b3OutputPrintfVarArgsInternal(ptr noundef nonnull @.str.19, ptr noundef nonnull %3)
  %4 = getelementptr inbounds nuw i8, ptr %2, i64 2048
  call void (ptr, ...) @b3OutputPrintfVarArgsInternal(ptr noundef nonnull @.str.20, ptr noundef nonnull %4)
  %5 = getelementptr inbounds nuw i8, ptr %2, i64 4096
  %6 = load i64, ptr %5, align 8, !tbaa !23
  %7 = and i64 %6, 2
  %.not = icmp eq i64 %7, 0
  br i1 %.not, label %9, label %8

8:                                                ; preds = %1
  call void (ptr, ...) @b3OutputPrintfVarArgsInternal(ptr noundef nonnull @.str.21, ptr noundef nonnull @.str.22)
  %.pre = load i64, ptr %5, align 8, !tbaa !23
  br label %9

9:                                                ; preds = %8, %1
  %10 = phi i64 [ %.pre, %8 ], [ %6, %1 ]
  %11 = and i64 %10, 4
  %.not1 = icmp eq i64 %11, 0
  br i1 %.not1, label %13, label %12

12:                                               ; preds = %9
  call void (ptr, ...) @b3OutputPrintfVarArgsInternal(ptr noundef nonnull @.str.21, ptr noundef nonnull @.str.23)
  %.pre7 = load i64, ptr %5, align 8, !tbaa !23
  br label %13

13:                                               ; preds = %12, %9
  %14 = phi i64 [ %.pre7, %12 ], [ %10, %9 ]
  %15 = and i64 %14, 8
  %.not2 = icmp eq i64 %15, 0
  br i1 %.not2, label %17, label %16

16:                                               ; preds = %13
  call void (ptr, ...) @b3OutputPrintfVarArgsInternal(ptr noundef nonnull @.str.21, ptr noundef nonnull @.str.24)
  %.pre8 = load i64, ptr %5, align 8, !tbaa !23
  br label %17

17:                                               ; preds = %16, %13
  %18 = phi i64 [ %.pre8, %16 ], [ %14, %13 ]
  %19 = and i64 %18, 1
  %.not3 = icmp eq i64 %19, 0
  br i1 %.not3, label %21, label %20

20:                                               ; preds = %17
  call void (ptr, ...) @b3OutputPrintfVarArgsInternal(ptr noundef nonnull @.str.21, ptr noundef nonnull @.str.25)
  br label %21

21:                                               ; preds = %20, %17
  %22 = getelementptr inbounds nuw i8, ptr %2, i64 4104
  %23 = load i32, ptr %22, align 8, !tbaa !25
  call void (ptr, ...) @b3OutputPrintfVarArgsInternal(ptr noundef nonnull @.str.26, i32 noundef %23)
  %24 = getelementptr inbounds nuw i8, ptr %2, i64 4112
  %25 = load i64, ptr %24, align 8, !tbaa !26
  call void (ptr, ...) @b3OutputPrintfVarArgsInternal(ptr noundef nonnull @.str.27, i64 noundef %25)
  %26 = getelementptr inbounds nuw i8, ptr %2, i64 4120
  %27 = load i64, ptr %26, align 8, !tbaa !15
  %28 = getelementptr inbounds nuw i8, ptr %2, i64 4128
  %29 = load i64, ptr %28, align 8, !tbaa !15
  %30 = getelementptr inbounds nuw i8, ptr %2, i64 4136
  %31 = load i64, ptr %30, align 8, !tbaa !15
  call void (ptr, ...) @b3OutputPrintfVarArgsInternal(ptr noundef nonnull @.str.28, i64 noundef %27, i64 noundef %29, i64 noundef %31)
  %32 = getelementptr inbounds nuw i8, ptr %2, i64 4184
  %33 = load i64, ptr %32, align 8, !tbaa !27
  call void (ptr, ...) @b3OutputPrintfVarArgsInternal(ptr noundef nonnull @.str.29, i64 noundef %33)
  %34 = getelementptr inbounds nuw i8, ptr %2, i64 4192
  %35 = load i32, ptr %34, align 8, !tbaa !28
  call void (ptr, ...) @b3OutputPrintfVarArgsInternal(ptr noundef nonnull @.str.30, i32 noundef %35)
  %36 = getelementptr inbounds nuw i8, ptr %2, i64 4240
  %37 = load i32, ptr %36, align 8, !tbaa !29
  call void (ptr, ...) @b3OutputPrintfVarArgsInternal(ptr noundef nonnull @.str.31, i32 noundef %37)
  %38 = getelementptr inbounds nuw i8, ptr %2, i64 4248
  %39 = load i64, ptr %38, align 8, !tbaa !30
  %40 = lshr i64 %39, 20
  %41 = trunc i64 %40 to i32
  call void (ptr, ...) @b3OutputPrintfVarArgsInternal(ptr noundef nonnull @.str.32, i32 noundef %41)
  %42 = getelementptr inbounds nuw i8, ptr %2, i64 4216
  %43 = load i64, ptr %42, align 8, !tbaa !31
  %44 = lshr i64 %43, 20
  %45 = trunc i64 %44 to i32
  call void (ptr, ...) @b3OutputPrintfVarArgsInternal(ptr noundef nonnull @.str.33, i32 noundef %45)
  %46 = getelementptr inbounds nuw i8, ptr %2, i64 4224
  %47 = load i32, ptr %46, align 8, !tbaa !32
  %48 = icmp eq i32 %47, 1
  %49 = select i1 %48, ptr @.str.35, ptr @.str.36
  call void (ptr, ...) @b3OutputPrintfVarArgsInternal(ptr noundef nonnull @.str.34, ptr noundef nonnull %49)
  %50 = getelementptr inbounds nuw i8, ptr %2, i64 4228
  %51 = load i32, ptr %50, align 4, !tbaa !33
  %52 = icmp eq i32 %51, 1
  %53 = select i1 %52, ptr @.str.38, ptr @.str.39
  call void (ptr, ...) @b3OutputPrintfVarArgsInternal(ptr noundef nonnull @.str.37, ptr noundef nonnull %53)
  %54 = getelementptr inbounds nuw i8, ptr %2, i64 4208
  %55 = load i64, ptr %54, align 8, !tbaa !34
  %56 = lshr i64 %55, 10
  %57 = trunc i64 %56 to i32
  call void (ptr, ...) @b3OutputPrintfVarArgsInternal(ptr noundef nonnull @.str.40, i32 noundef %57)
  %58 = getelementptr inbounds nuw i8, ptr %2, i64 4200
  %59 = load i64, ptr %58, align 8, !tbaa !35
  %60 = lshr i64 %59, 10
  %61 = trunc i64 %60 to i32
  call void (ptr, ...) @b3OutputPrintfVarArgsInternal(ptr noundef nonnull @.str.41, i32 noundef %61)
  %62 = getelementptr inbounds nuw i8, ptr %2, i64 4256
  %63 = load i64, ptr %62, align 8, !tbaa !36
  %64 = and i64 %63, 1
  %.not4 = icmp eq i64 %64, 0
  br i1 %.not4, label %66, label %65

65:                                               ; preds = %21
  call void (ptr, ...) @b3OutputPrintfVarArgsInternal(ptr noundef nonnull @.str.42, ptr noundef nonnull @.str.43)
  %.pre9 = load i64, ptr %62, align 8, !tbaa !36
  br label %66

66:                                               ; preds = %65, %21
  %67 = phi i64 [ %.pre9, %65 ], [ %63, %21 ]
  %68 = and i64 %67, 2
  %.not5 = icmp eq i64 %68, 0
  br i1 %.not5, label %70, label %69

69:                                               ; preds = %66
  call void (ptr, ...) @b3OutputPrintfVarArgsInternal(ptr noundef nonnull @.str.42, ptr noundef nonnull @.str.44)
  br label %70

70:                                               ; preds = %69, %66
  %71 = getelementptr inbounds nuw i8, ptr %2, i64 4264
  %72 = load i32, ptr %71, align 8, !tbaa !37
  call void (ptr, ...) @b3OutputPrintfVarArgsInternal(ptr noundef nonnull @.str.45, i32 noundef %72)
  %73 = getelementptr inbounds nuw i8, ptr %2, i64 4232
  %74 = load i32, ptr %73, align 8, !tbaa !38
  call void (ptr, ...) @b3OutputPrintfVarArgsInternal(ptr noundef nonnull @.str.46, i32 noundef %74)
  %75 = getelementptr inbounds nuw i8, ptr %2, i64 4236
  %76 = load i32, ptr %75, align 4, !tbaa !39
  call void (ptr, ...) @b3OutputPrintfVarArgsInternal(ptr noundef nonnull @.str.47, i32 noundef %76)
  call void (ptr, ...) @b3OutputPrintfVarArgsInternal(ptr noundef nonnull @.str.48)
  %77 = getelementptr inbounds nuw i8, ptr %2, i64 4144
  %78 = load i64, ptr %77, align 8, !tbaa !40
  call void (ptr, ...) @b3OutputPrintfVarArgsInternal(ptr noundef nonnull @.str.49, i64 noundef %78)
  %79 = getelementptr inbounds nuw i8, ptr %2, i64 4152
  %80 = load i64, ptr %79, align 8, !tbaa !41
  call void (ptr, ...) @b3OutputPrintfVarArgsInternal(ptr noundef nonnull @.str.50, i64 noundef %80)
  %81 = getelementptr inbounds nuw i8, ptr %2, i64 4160
  %82 = load i64, ptr %81, align 8, !tbaa !42
  call void (ptr, ...) @b3OutputPrintfVarArgsInternal(ptr noundef nonnull @.str.51, i64 noundef %82)
  %83 = getelementptr inbounds nuw i8, ptr %2, i64 4168
  %84 = load i64, ptr %83, align 8, !tbaa !43
  call void (ptr, ...) @b3OutputPrintfVarArgsInternal(ptr noundef nonnull @.str.52, i64 noundef %84)
  %85 = getelementptr inbounds nuw i8, ptr %2, i64 4176
  %86 = load i64, ptr %85, align 8, !tbaa !44
  call void (ptr, ...) @b3OutputPrintfVarArgsInternal(ptr noundef nonnull @.str.53, i64 noundef %86)
  %87 = getelementptr inbounds nuw i8, ptr %2, i64 3072
  %88 = load i8, ptr %87, align 8, !tbaa !14
  %.not6 = icmp eq i8 %88, 0
  br i1 %.not6, label %90, label %89

89:                                               ; preds = %70
  call void (ptr, ...) @b3OutputPrintfVarArgsInternal(ptr noundef nonnull @.str.54, ptr noundef nonnull %87)
  br label %91

90:                                               ; preds = %70
  call void (ptr, ...) @b3OutputPrintfVarArgsInternal(ptr noundef nonnull @.str.55)
  br label %91

91:                                               ; preds = %90, %89
  call void (ptr, ...) @b3OutputPrintfVarArgsInternal(ptr noundef nonnull @.str.56)
  %92 = getelementptr inbounds nuw i8, ptr %2, i64 4268
  %93 = load i32, ptr %92, align 4, !tbaa !45
  %94 = getelementptr inbounds nuw i8, ptr %2, i64 4272
  %95 = load i32, ptr %94, align 8, !tbaa !46
  %96 = getelementptr inbounds nuw i8, ptr %2, i64 4276
  %97 = load i32, ptr %96, align 4, !tbaa !47
  %98 = getelementptr inbounds nuw i8, ptr %2, i64 4280
  %99 = load i32, ptr %98, align 8, !tbaa !48
  %100 = getelementptr inbounds nuw i8, ptr %2, i64 4284
  %101 = load i32, ptr %100, align 4, !tbaa !49
  %102 = getelementptr inbounds nuw i8, ptr %2, i64 4288
  %103 = load i32, ptr %102, align 8, !tbaa !50
  call void (ptr, ...) @b3OutputPrintfVarArgsInternal(ptr noundef nonnull @.str.57, i32 noundef %93, i32 noundef %95, i32 noundef %97, i32 noundef %99, i32 noundef %101, i32 noundef %103)
  call void @llvm.lifetime.end.p0(i64 4296, ptr nonnull %2) #12
  ret void
}